target datalayout = "e-m:e-p270:32:32-p271:32:32-p272:64:64-i64:64-i128:128-f80:128-n8:16:32:64-S128"
target triple = "x86_64-pc-linux-gnu"

%struct.Dar_RefPar_t_ = type { i32, i32, i32, i32, i32, i32, i32, i32 }

; Function Attrs: nounwind uwtable
define ptr @Gia_ManTranStochRefactor(ptr noundef %0) #0 {
  %2 = alloca ptr, align 8
  %3 = alloca ptr, align 8
  %4 = alloca ptr, align 8
  %5 = alloca ptr, align 8
  %6 = alloca %struct.Dar_RefPar_t_, align 4
  %7 = alloca ptr, align 8
  store ptr %0, ptr %2, align 8, !tbaa !3
  call void @llvm.lifetime.start.p0(i64 8, ptr %3) #10
  call void @llvm.lifetime.start.p0(i64 8, ptr %4) #10
  call void @llvm.lifetime.start.p0(i64 8, ptr %5) #10
  call void @llvm.lifetime.start.p0(i64 32, ptr %6) #10
  call void @llvm.lifetime.start.p0(i64 8, ptr %7) #10
  store ptr %6, ptr %7, align 8, !tbaa !36
  %8 = load ptr, ptr %7, align 8, !tbaa !36
  call void @Dar_ManDefaultRefParams(ptr noundef %8)
  %9 = load ptr, ptr %7, align 8, !tbaa !36
  %10 = getelementptr inbounds nuw %struct.Dar_RefPar_t_, ptr %9, i32 0, i32 5
  store i32 1, ptr %10, align 4, !tbaa !38
  %11 = load ptr, ptr %2, align 8, !tbaa !3
  %12 = call ptr @Gia_ManToAig(ptr noundef %11, i32 noundef 0)
  store ptr %12, ptr %4, align 8, !tbaa !8
  %13 = load ptr, ptr %4, align 8, !tbaa !8
  %14 = load ptr, ptr %7, align 8, !tbaa !36
  %15 = call i32 @Dar_ManRefactor(ptr noundef %13, ptr noundef %14)
  %16 = load ptr, ptr %4, align 8, !tbaa !8
  store ptr %16, ptr %5, align 8, !tbaa !8
  %17 = call ptr @Aig_ManDupDfs(ptr noundef %16)
  store ptr %17, ptr %4, align 8, !tbaa !8
  %18 = load ptr, ptr %5, align 8, !tbaa !8
  call void @Aig_ManStop(ptr noundef %18)
  %19 = load ptr, ptr %4, align 8, !tbaa !8
  %20 = call ptr @Gia_ManFromAig(ptr noundef %19)
  store ptr %20, ptr %3, align 8, !tbaa !3
  %21 = load ptr, ptr %4, align 8, !tbaa !8
  call void @Aig_ManStop(ptr noundef %21)
  %22 = load ptr, ptr %3, align 8, !tbaa !3
  call void @llvm.lifetime.end.p0(i64 8, ptr %7) #10
  call void @llvm.lifetime.end.p0(i64 32, ptr %6) #10
  call void @llvm.lifetime.end.p0(i64 8, ptr %5) #10
  call void @llvm.lifetime.end.p0(i64 8, ptr %4) #10
  call void @llvm.lifetime.end.p0(i64 8, ptr %3) #10
  ret ptr %22
}