; Function Attrs: nounwind uwtable
define ptr @Gia_ManTranStochRefactor(ptr noundef %0) local_unnamed_addr #0 {
  %2 = alloca %struct.Dar_RefPar_t_, align 4
  call void @llvm.lifetime.start.p0(i64 32, ptr nonnull %2) #14
  call void @Dar_ManDefaultRefParams(ptr noundef nonnull %2) #14
  %3 = getelementptr inbounds nuw i8, ptr %2, i64 20
  store i32 1, ptr %3, align 4, !tbaa !24
  %4 = call ptr @Gia_ManToAig(ptr noundef %0, i32 noundef 0) #14
  %5 = call i32 @Dar_ManRefactor(ptr noundef %4, ptr noundef nonnull %2) #14
  %6 = call ptr @Aig_ManDupDfs(ptr noundef %4) #14
  call void @Aig_ManStop(ptr noundef %4) #14
  %7 = call ptr @Gia_ManFromAig(ptr noundef %6) #14
  call void @Aig_ManStop(ptr noundef %6) #14
  call void @llvm.lifetime.end.p0(i64 32, ptr nonnull %2) #14
  ret ptr %7
}